; Function Attrs: nounwind uwtable
define internal ptr @stringio_new(ptr noundef %0, ptr readnone captures(none) %1, ptr readnone captures(none) %2) #0 {
  %4 = getelementptr inbounds nuw i8, ptr %0, i64 304
  %5 = load ptr, ptr %4, align 8, !tbaa !63
  %6 = tail call ptr %5(ptr noundef %0, i64 noundef 0) #6
  %7 = icmp eq ptr %6, null
  br i1 %7, label %19, label %8

8:                                                ; preds = %3
  %9 = tail call ptr @PyMem_Malloc(i64 noundef 0) #6
  %10 = getelementptr inbounds nuw i8, ptr %6, i64 16
  store ptr %9, ptr %10, align 8, !tbaa !21
  %11 = icmp eq ptr %9, null
  br i1 %11, label %12, label %19

12:                                               ; preds = %8
  %13 = load i32, ptr %6, align 8, !tbaa !32
  %.not.i = icmp sgt i32 %13, -1
  br i1 %.not.i, label %14, label %Py_DECREF.exit

14:                                               ; preds = %12
  %15 = add nsw i32 %13, -1
  store i32 %15, ptr %6, align 8, !tbaa !32
  %16 = icmp eq i32 %15, 0
  br i1 %16, label %17, label %Py_DECREF.exit

17:                                               ; preds = %14
  tail call void @_Py_Dealloc(ptr noundef nonnull %6) #6
  br label %Py_DECREF.exit

Py_DECREF.exit:                                   ; preds = %12, %14, %17
  %18 = tail call ptr @PyErr_NoMemory() #6
  br label %19

19:                                               ; preds = %8, %3, %Py_DECREF.exit
  %.0 = phi ptr [ %18, %Py_DECREF.exit ], [ null, %3 ], [ %6, %8 ]
  ret ptr %.0
}